#include <math.h>
#include <stdio.h>
#include <stdlib.h>
#include <string.h>

int main(int argc, char* argv[])
{
	int a[300],n,i,j,k;
	scanf("%d",&n);
	for(i=0;i<n;i++)
	{
		scanf("%d",&a[i]);
	}
	for(i=0;i<n;i++)
	{
		for(j=i+1;j<n;j++)
		{
			if(a[i]==-1)
				break;
			else if(a[i]==a[j])
				a[j]=-1;
		}
	}
	for(k=n-1;k>=0;k--)
	{
		if(a[k]==-1)
			continue;
		else
			break;
	}
	for(i=0;i<n;i++)
	{
		if(a[i]==-1)
			continue;
		else if(i==k)
		    printf("%d",a[i]);
		else
			printf("%d,",a[i]);
	}

	return 0;
}