; ModuleID = '53/200.c'
source_filename = "53/200.c"
target datalayout = "e-m:e-p270:32:32-p271:32:32-p272:64:64-i64:64-f80:128-n8:16:32:64-S128"
target triple = "x86_64-pc-linux-gnu"

@.str = private unnamed_addr constant [3 x i8] c"%d\00", align 1
@.str.1 = private unnamed_addr constant [4 x i8] c"%d,\00", align 1

; Function Attrs: noinline nounwind uwtable
define dso_local i32 @main(i32 %0, i8** %1) #0 {
  %3 = alloca i32, align 4
  %4 = alloca i32, align 4
  %5 = alloca i8**, align 8
  %6 = alloca [300 x i32], align 16
  %7 = alloca i32, align 4
  %8 = alloca i32, align 4
  %9 = alloca i32, align 4
  %10 = alloca i32, align 4
  store i32 0, i32* %3, align 4
  store i32 %0, i32* %4, align 4
  store i8** %1, i8*** %5, align 8
  %11 = call i32 (i8*, ...) @__isoc99_scanf(i8* getelementptr inbounds ([3 x i8], [3 x i8]* @.str, i64 0, i64 0), i32* %7)
  store i32 0, i32* %8, align 4
  br label %12

12:                                               ; preds = %21, %2
  %13 = load i32, i32* %8, align 4
  %14 = load i32, i32* %7, align 4
  %15 = icmp slt i32 %13, %14
  br i1 %15, label %16, label %24

16:                                               ; preds = %12
  %17 = load i32, i32* %8, align 4
  %18 = sext i32 %17 to i64
  %19 = getelementptr inbounds [300 x i32], [300 x i32]* %6, i64 0, i64 %18
  %20 = call i32 (i8*, ...) @__isoc99_scanf(i8* getelementptr inbounds ([3 x i8], [3 x i8]* @.str, i64 0, i64 0), i32* %19)
  br label %21

21:                                               ; preds = %16
  %22 = load i32, i32* %8, align 4
  %23 = add nsw i32 %22, 1
  store i32 %23, i32* %8, align 4
  br label %12

24:                                               ; preds = %12
  store i32 0, i32* %8, align 4
  br label %25

25:                                               ; preds = %63, %24
  %26 = load i32, i32* %8, align 4
  %27 = load i32, i32* %7, align 4
  %28 = icmp slt i32 %26, %27
  br i1 %28, label %29, label %66

29:                                               ; preds = %25
  %30 = load i32, i32* %8, align 4
  %31 = add nsw i32 %30, 1
  store i32 %31, i32* %9, align 4
  br label %32

32:                                               ; preds = %59, %29
  %33 = load i32, i32* %9, align 4
  %34 = load i32, i32* %7, align 4
  %35 = icmp slt i32 %33, %34
  br i1 %35, label %36, label %62

36:                                               ; preds = %32
  %37 = load i32, i32* %8, align 4
  %38 = sext i32 %37 to i64
  %39 = getelementptr inbounds [300 x i32], [300 x i32]* %6, i64 0, i64 %38
  %40 = load i32, i32* %39, align 4
  %41 = icmp eq i32 %40, -1
  br i1 %41, label %42, label %43

42:                                               ; preds = %36
  br label %62

43:                                               ; preds = %36
  %44 = load i32, i32* %8, align 4
  %45 = sext i32 %44 to i64
  %46 = getelementptr inbounds [300 x i32], [300 x i32]* %6, i64 0, i64 %45
  %47 = load i32, i32* %46, align 4
  %48 = load i32, i32* %9, align 4
  %49 = sext i32 %48 to i64
  %50 = getelementptr inbounds [300 x i32], [300 x i32]* %6, i64 0, i64 %49
  %51 = load i32, i32* %50, align 4
  %52 = icmp eq i32 %47, %51
  br i1 %52, label %53, label %57

53:                                               ; preds = %43
  %54 = load i32, i32* %9, align 4
  %55 = sext i32 %54 to i64
  %56 = getelementptr inbounds [300 x i32], [300 x i32]* %6, i64 0, i64 %55
  store i32 -1, i32* %56, align 4
  br label %57

57:                                               ; preds = %53, %43
  br label %58

58:                                               ; preds = %57
  br label %59

59:                                               ; preds = %58
  %60 = load i32, i32* %9, align 4
  %61 = add nsw i32 %60, 1
  store i32 %61, i32* %9, align 4
  br label %32

62:                                               ; preds = %42, %32
  br label %63

63:                                               ; preds = %62
  %64 = load i32, i32* %8, align 4
  %65 = add nsw i32 %64, 1
  store i32 %65, i32* %8, align 4
  br label %25

66:                                               ; preds = %25
  %67 = load i32, i32* %7, align 4
  %68 = sub nsw i32 %67, 1
  store i32 %68, i32* %10, align 4
  br label %69

69:                                               ; preds = %80, %66
  %70 = load i32, i32* %10, align 4
  %71 = icmp sge i32 %70, 0
  br i1 %71, label %72, label %83

72:                                               ; preds = %69
  %73 = load i32, i32* %10, align 4
  %74 = sext i32 %73 to i64
  %75 = getelementptr inbounds [300 x i32], [300 x i32]* %6, i64 0, i64 %74
  %76 = load i32, i32* %75, align 4
  %77 = icmp eq i32 %76, -1
  br i1 %77, label %78, label %79

78:                                               ; preds = %72
  br label %80

79:                                               ; preds = %72
  br label %83

80:                                               ; preds = %78
  %81 = load i32, i32* %10, align 4
  %82 = add nsw i32 %81, -1
  store i32 %82, i32* %10, align 4
  br label %69

83:                                               ; preds = %79, %69
  store i32 0, i32* %8, align 4
  br label %84

84:                                               ; preds = %113, %83
  %85 = load i32, i32* %8, align 4
  %86 = load i32, i32* %7, align 4
  %87 = icmp slt i32 %85, %86
  br i1 %87, label %88, label %116

88:                                               ; preds = %84
  %89 = load i32, i32* %8, align 4
  %90 = sext i32 %89 to i64
  %91 = getelementptr inbounds [300 x i32], [300 x i32]* %6, i64 0, i64 %90
  %92 = load i32, i32* %91, align 4
  %93 = icmp eq i32 %92, -1
  br i1 %93, label %94, label %95

94:                                               ; preds = %88
  br label %113

95:                                               ; preds = %88
  %96 = load i32, i32* %8, align 4
  %97 = load i32, i32* %10, align 4
  %98 = icmp eq i32 %96, %97
  br i1 %98, label %99, label %105

99:                                               ; preds = %95
  %100 = load i32, i32* %8, align 4
  %101 = sext i32 %100 to i64
  %102 = getelementptr inbounds [300 x i32], [300 x i32]* %6, i64 0, i64 %101
  %103 = load i32, i32* %102, align 4
  %104 = call i32 (i8*, ...) @printf(i8* getelementptr inbounds ([3 x i8], [3 x i8]* @.str, i64 0, i64 0), i32 %103)
  br label %111

105:                                              ; preds = %95
  %106 = load i32, i32* %8, align 4
  %107 = sext i32 %106 to i64
  %108 = getelementptr inbounds [300 x i32], [300 x i32]* %6, i64 0, i64 %107
  %109 = load i32, i32* %108, align 4
  %110 = call i32 (i8*, ...) @printf(i8* getelementptr inbounds ([4 x i8], [4 x i8]* @.str.1, i64 0, i64 0), i32 %109)
  br label %111

111:                                              ; preds = %105, %99
  br label %112

112:                                              ; preds = %111
  br label %113

113:                                              ; preds = %112, %94
  %114 = load i32, i32* %8, align 4
  %115 = add nsw i32 %114, 1
  store i32 %115, i32* %8, align 4
  br label %84

116:                                              ; preds = %84
  ret i32 0
}

declare dso_local i32 @__isoc99_scanf(i8*, ...) #1

declare dso_local i32 @printf(i8*, ...) #1


!llvm.module.flags = !{!0}
!llvm.ident = !{!1}

!0 = !{i32 1, !"wchar_size", i32 4}
!1 = !{!"clang version 10.0.0-4ubuntu1 "}
